target datalayout = "e-m:e-p270:32:32-p271:32:32-p272:64:64-i64:64-i128:128-f80:128-n8:16:32:64-S128"
target triple = "x86_64-pc-linux-gnu"

; Function Attrs: nounwind uwtable
define internal i32 @sbc_enc_process_input_4s(i32 noundef %0, ptr noundef %1, ptr noundef %2, i32 noundef %3, i32 noundef %4) #1 {
  %6 = alloca i32, align 4
  %7 = alloca ptr, align 8
  %8 = alloca ptr, align 8
  %9 = alloca i32, align 4
  %10 = alloca i32, align 4
  %11 = alloca i32, align 4
  %12 = alloca ptr, align 8
  store i32 %0, ptr %6, align 4, !tbaa !24
  store ptr %1, ptr %7, align 8, !tbaa !25
  store ptr %2, ptr %8, align 8, !tbaa !20
  store i32 %3, ptr %9, align 4, !tbaa !24
  store i32 %4, ptr %10, align 4, !tbaa !24
  call void @llvm.lifetime.start.p0(i64 4, ptr %11) #8
  %13 = load i32, ptr %6, align 4, !tbaa !24
  %14 = load i32, ptr %9, align 4, !tbaa !24
  %15 = icmp slt i32 %13, %14
  br i1 %15, label %16, label %38

16:                                               ; preds = %5
  store i32 0, ptr %11, align 4, !tbaa !24
  br label %17

17:                                               ; preds = %34, %16
  %18 = load i32, ptr %11, align 4, !tbaa !24
  %19 = load i32, ptr %10, align 4, !tbaa !24
  %20 = icmp slt i32 %18, %19
  br i1 %20, label %21, label %37

21:                                               ; preds = %17
  %22 = load ptr, ptr %8, align 8, !tbaa !20
  %23 = load i32, ptr %11, align 4, !tbaa !24
  %24 = sext i32 %23 to i64
  %25 = getelementptr inbounds [328 x i16], ptr %22, i64 %24
  %26 = getelementptr inbounds [328 x i16], ptr %25, i64 0, i64 288
  %27 = load ptr, ptr %8, align 8, !tbaa !20
  %28 = load i32, ptr %11, align 4, !tbaa !24
  %29 = sext i32 %28 to i64
  %30 = getelementptr inbounds [328 x i16], ptr %27, i64 %29
  %31 = load i32, ptr %6, align 4, !tbaa !24
  %32 = sext i32 %31 to i64
  %33 = getelementptr inbounds [328 x i16], ptr %30, i64 0, i64 %32
  call void @llvm.memcpy.p0.p0.i64(ptr align 2 %26, ptr align 2 %33, i64 72, i1 false)
  br label %34

34:                                               ; preds = %21
  %35 = load i32, ptr %11, align 4, !tbaa !24
  %36 = add nsw i32 %35, 1
  store i32 %36, ptr %11, align 4, !tbaa !24
  br label %17, !llvm.loop !27

37:                                               ; preds = %17
  store i32 288, ptr %6, align 4, !tbaa !24
  br label %38

38:                                               ; preds = %37, %5
  br label %39

39:                                               ; preds = %157, %38
  %40 = load i32, ptr %9, align 4, !tbaa !24
  %41 = icmp sge i32 %40, 8
  br i1 %41, label %42, label %165

42:                                               ; preds = %39
  %43 = load i32, ptr %6, align 4, !tbaa !24
  %44 = sub nsw i32 %43, 8
  store i32 %44, ptr %6, align 4, !tbaa !24
  store i32 0, ptr %11, align 4, !tbaa !24
  br label %45

45:                                               ; preds = %153, %42
  %46 = load i32, ptr %11, align 4, !tbaa !24
  %47 = load i32, ptr %10, align 4, !tbaa !24
  %48 = icmp slt i32 %46, %47
  br i1 %48, label %49, label %156

49:                                               ; preds = %45
  call void @llvm.lifetime.start.p0(i64 8, ptr %12) #8
  %50 = load ptr, ptr %8, align 8, !tbaa !20
  %51 = load i32, ptr %11, align 4, !tbaa !24
  %52 = sext i32 %51 to i64
  %53 = getelementptr inbounds [328 x i16], ptr %50, i64 %52
  %54 = load i32, ptr %6, align 4, !tbaa !24
  %55 = sext i32 %54 to i64
  %56 = getelementptr inbounds [328 x i16], ptr %53, i64 0, i64 %55
  store ptr %56, ptr %12, align 8, !tbaa !20
  %57 = load ptr, ptr %7, align 8, !tbaa !25
  %58 = load i32, ptr %10, align 4, !tbaa !24
  %59 = mul nsw i32 14, %58
  %60 = sext i32 %59 to i64
  %61 = getelementptr inbounds i8, ptr %57, i64 %60
  %62 = load i32, ptr %11, align 4, !tbaa !24
  %63 = mul nsw i32 2, %62
  %64 = sext i32 %63 to i64
  %65 = getelementptr inbounds i8, ptr %61, i64 %64
  %66 = load i16, ptr %65, align 1, !tbaa !29
  %67 = load ptr, ptr %12, align 8, !tbaa !20
  %68 = getelementptr inbounds i16, ptr %67, i64 0
  store i16 %66, ptr %68, align 2, !tbaa !30
  %69 = load ptr, ptr %7, align 8, !tbaa !25
  %70 = load i32, ptr %10, align 4, !tbaa !24
  %71 = mul nsw i32 6, %70
  %72 = sext i32 %71 to i64
  %73 = getelementptr inbounds i8, ptr %69, i64 %72
  %74 = load i32, ptr %11, align 4, !tbaa !24
  %75 = mul nsw i32 2, %74
  %76 = sext i32 %75 to i64
  %77 = getelementptr inbounds i8, ptr %73, i64 %76
  %78 = load i16, ptr %77, align 1, !tbaa !29
  %79 = load ptr, ptr %12, align 8, !tbaa !20
  %80 = getelementptr inbounds i16, ptr %79, i64 1
  store i16 %78, ptr %80, align 2, !tbaa !30
  %81 = load ptr, ptr %7, align 8, !tbaa !25
  %82 = load i32, ptr %10, align 4, !tbaa !24
  %83 = mul nsw i32 12, %82
  %84 = sext i32 %83 to i64
  %85 = getelementptr inbounds i8, ptr %81, i64 %84
  %86 = load i32, ptr %11, align 4, !tbaa !24
  %87 = mul nsw i32 2, %86
  %88 = sext i32 %87 to i64
  %89 = getelementptr inbounds i8, ptr %85, i64 %88
  %90 = load i16, ptr %89, align 1, !tbaa !29
  %91 = load ptr, ptr %12, align 8, !tbaa !20
  %92 = getelementptr inbounds i16, ptr %91, i64 2
  store i16 %90, ptr %92, align 2, !tbaa !30
  %93 = load ptr, ptr %7, align 8, !tbaa !25
  %94 = load i32, ptr %10, align 4, !tbaa !24
  %95 = mul nsw i32 8, %94
  %96 = sext i32 %95 to i64
  %97 = getelementptr inbounds i8, ptr %93, i64 %96
  %98 = load i32, ptr %11, align 4, !tbaa !24
  %99 = mul nsw i32 2, %98
  %100 = sext i32 %99 to i64
  %101 = getelementptr inbounds i8, ptr %97, i64 %100
  %102 = load i16, ptr %101, align 1, !tbaa !29
  %103 = load ptr, ptr %12, align 8, !tbaa !20
  %104 = getelementptr inbounds i16, ptr %103, i64 3
  store i16 %102, ptr %104, align 2, !tbaa !30
  %105 = load ptr, ptr %7, align 8, !tbaa !25
  %106 = load i32, ptr %10, align 4, !tbaa !24
  %107 = mul nsw i32 0, %106
  %108 = sext i32 %107 to i64
  %109 = getelementptr inbounds i8, ptr %105, i64 %108
  %110 = load i32, ptr %11, align 4, !tbaa !24
  %111 = mul nsw i32 2, %110
  %112 = sext i32 %111 to i64
  %113 = getelementptr inbounds i8, ptr %109, i64 %112
  %114 = load i16, ptr %113, align 1, !tbaa !29
  %115 = load ptr, ptr %12, align 8, !tbaa !20
  %116 = getelementptr inbounds i16, ptr %115, i64 4
  store i16 %114, ptr %116, align 2, !tbaa !30
  %117 = load ptr, ptr %7, align 8, !tbaa !25
  %118 = load i32, ptr %10, align 4, !tbaa !24
  %119 = mul nsw i32 4, %118
  %120 = sext i32 %119 to i64
  %121 = getelementptr inbounds i8, ptr %117, i64 %120
  %122 = load i32, ptr %11, align 4, !tbaa !24
  %123 = mul nsw i32 2, %122
  %124 = sext i32 %123 to i64
  %125 = getelementptr inbounds i8, ptr %121, i64 %124
  %126 = load i16, ptr %125, align 1, !tbaa !29
  %127 = load ptr, ptr %12, align 8, !tbaa !20
  %128 = getelementptr inbounds i16, ptr %127, i64 5
  store i16 %126, ptr %128, align 2, !tbaa !30
  %129 = load ptr, ptr %7, align 8, !tbaa !25
  %130 = load i32, ptr %10, align 4, !tbaa !24
  %131 = mul nsw i32 2, %130
  %132 = sext i32 %131 to i64
  %133 = getelementptr inbounds i8, ptr %129, i64 %132
  %134 = load i32, ptr %11, align 4, !tbaa !24
  %135 = mul nsw i32 2, %134
  %136 = sext i32 %135 to i64
  %137 = getelementptr inbounds i8, ptr %133, i64 %136
  %138 = load i16, ptr %137, align 1, !tbaa !29
  %139 = load ptr, ptr %12, align 8, !tbaa !20
  %140 = getelementptr inbounds i16, ptr %139, i64 6
  store i16 %138, ptr %140, align 2, !tbaa !30
  %141 = load ptr, ptr %7, align 8, !tbaa !25
  %142 = load i32, ptr %10, align 4, !tbaa !24
  %143 = mul nsw i32 10, %142
  %144 = sext i32 %143 to i64
  %145 = getelementptr inbounds i8, ptr %141, i64 %144
  %146 = load i32, ptr %11, align 4, !tbaa !24
  %147 = mul nsw i32 2, %146
  %148 = sext i32 %147 to i64
  %149 = getelementptr inbounds i8, ptr %145, i64 %148
  %150 = load i16, ptr %149, align 1, !tbaa !29
  %151 = load ptr, ptr %12, align 8, !tbaa !20
  %152 = getelementptr inbounds i16, ptr %151, i64 7
  store i16 %150, ptr %152, align 2, !tbaa !30
  call void @llvm.lifetime.end.p0(i64 8, ptr %12) #8
  br label %153

153:                                              ; preds = %49
  %154 = load i32, ptr %11, align 4, !tbaa !24
  %155 = add nsw i32 %154, 1
  store i32 %155, ptr %11, align 4, !tbaa !24
  br label %45, !llvm.loop !32

156:                                              ; preds = %45
  br label %157

157:                                              ; preds = %156
  %158 = load i32, ptr %9, align 4, !tbaa !24
  %159 = sub nsw i32 %158, 8
  store i32 %159, ptr %9, align 4, !tbaa !24
  %160 = load i32, ptr %10, align 4, !tbaa !24
  %161 = mul nsw i32 16, %160
  %162 = load ptr, ptr %7, align 8, !tbaa !25
  %163 = sext i32 %161 to i64
  %164 = getelementptr inbounds i8, ptr %162, i64 %163
  store ptr %164, ptr %7, align 8, !tbaa !25
  br label %39, !llvm.loop !33

165:                                              ; preds = %39
  %166 = load i32, ptr %6, align 4, !tbaa !24
  call void @llvm.lifetime.end.p0(i64 4, ptr %11) #8
  ret i32 %166
}