; Function Attrs: nofree norecurse nosync nounwind memory(argmem: readwrite) uwtable
define internal i32 @sbc_enc_process_input_4s(i32 noundef %0, ptr noundef readonly captures(none) %1, ptr noundef captures(none) %2, i32 noundef %3, i32 noundef %4) #1 {
  %6 = icmp slt i32 %0, %3
  br i1 %6, label %.preheader, label %.loopexit

.preheader:                                       ; preds = %5
  %7 = icmp sgt i32 %4, 0
  br i1 %7, label %.lr.ph, label %.loopexit

.lr.ph:                                           ; preds = %.preheader
  %8 = sext i32 %0 to i64
  %wide.trip.count = zext nneg i32 %4 to i64
  br label %9

9:                                                ; preds = %.lr.ph, %9
  %indvars.iv = phi i64 [ 0, %.lr.ph ], [ %indvars.iv.next, %9 ]
  %10 = getelementptr inbounds nuw [328 x i16], ptr %2, i64 %indvars.iv, i64 288
  %11 = getelementptr inbounds [328 x i16], ptr %2, i64 %indvars.iv, i64 %8
  tail call void @llvm.memcpy.p0.p0.i64(ptr noundef nonnull align 2 dereferenceable(72) %10, ptr noundef nonnull align 2 dereferenceable(72) %11, i64 72, i1 false)
  %indvars.iv.next = add nuw nsw i64 %indvars.iv, 1
  %exitcond.not = icmp eq i64 %indvars.iv.next, %wide.trip.count
  br i1 %exitcond.not, label %.loopexit, label %9, !llvm.loop !28

.loopexit:                                        ; preds = %9, %.preheader, %5
  %.0 = phi i32 [ %0, %5 ], [ 288, %.preheader ], [ 288, %9 ]
  %12 = icmp sgt i32 %3, 7
  br i1 %12, label %.lr.ph68, label %._crit_edge69

.lr.ph68:                                         ; preds = %.loopexit
  %13 = icmp sgt i32 %4, 0
  %14 = mul nsw i32 %4, 14
  %15 = sext i32 %14 to i64
  %16 = mul nsw i32 %4, 6
  %17 = sext i32 %16 to i64
  %18 = mul nsw i32 %4, 12
  %19 = sext i32 %18 to i64
  %20 = shl nsw i32 %4, 3
  %21 = sext i32 %20 to i64
  %22 = shl nsw i32 %4, 2
  %23 = sext i32 %22 to i64
  %24 = shl nsw i32 %4, 1
  %25 = sext i32 %24 to i64
  %26 = mul nsw i32 %4, 10
  %27 = sext i32 %26 to i64
  %28 = shl nsw i32 %4, 4
  %29 = sext i32 %28 to i64
  br i1 %13, label %.lr.ph63.us.preheader, label %.lr.ph68.split.preheader

.lr.ph68.split.preheader:                         ; preds = %.lr.ph68
  %30 = add i32 %.0, -8
  %31 = tail call i32 @llvm.usub.sat.i32(i32 %3, i32 15)
  %32 = add nuw i32 %31, 7
  %33 = and i32 %32, -8
  %34 = sub i32 %30, %33
  br label %._crit_edge69

.lr.ph63.us.preheader:                            ; preds = %.lr.ph68
  %35 = sext i32 %.0 to i64
  %wide.trip.count76 = zext nneg i32 %4 to i64
  br label %.lr.ph63.us

.lr.ph63.us:                                      ; preds = %.lr.ph63.us.preheader, %._crit_edge.us
  %indvars.iv78 = phi i64 [ %35, %.lr.ph63.us.preheader ], [ %indvars.iv.next79, %._crit_edge.us ]
  %.05565.us = phi ptr [ %1, %.lr.ph63.us.preheader ], [ %70, %._crit_edge.us ]
  %.05664.us = phi i32 [ %3, %.lr.ph63.us.preheader ], [ %69, %._crit_edge.us ]
  %indvars.iv.next79 = add nsw i64 %indvars.iv78, -8
  %36 = getelementptr inbounds nuw i8, ptr %.05565.us, i64 %15
  %37 = getelementptr inbounds nuw i8, ptr %.05565.us, i64 %17
  %38 = getelementptr inbounds nuw i8, ptr %.05565.us, i64 %19
  %39 = getelementptr inbounds nuw i8, ptr %.05565.us, i64 %21
  %40 = getelementptr inbounds nuw i8, ptr %.05565.us, i64 %23
  %41 = getelementptr inbounds nuw i8, ptr %.05565.us, i64 %25
  %42 = getelementptr inbounds nuw i8, ptr %.05565.us, i64 %27
  br label %43

43:                                               ; preds = %.lr.ph63.us, %43
  %indvars.iv73 = phi i64 [ 0, %.lr.ph63.us ], [ %indvars.iv.next74, %43 ]
  %44 = getelementptr inbounds [328 x i16], ptr %2, i64 %indvars.iv73, i64 %indvars.iv.next79
  %45 = shl nuw nsw i64 %indvars.iv73, 1
  %46 = getelementptr inbounds nuw i8, ptr %36, i64 %45
  %47 = load i16, ptr %46, align 1, !tbaa !29
  store i16 %47, ptr %44, align 2, !tbaa !21
  %48 = getelementptr inbounds nuw i8, ptr %37, i64 %45
  %49 = load i16, ptr %48, align 1, !tbaa !29
  %50 = getelementptr inbounds nuw i8, ptr %44, i64 2
  store i16 %49, ptr %50, align 2, !tbaa !21
  %51 = getelementptr inbounds nuw i8, ptr %38, i64 %45
  %52 = load i16, ptr %51, align 1, !tbaa !29
  %53 = getelementptr inbounds nuw i8, ptr %44, i64 4
  store i16 %52, ptr %53, align 2, !tbaa !21
  %54 = getelementptr inbounds nuw i8, ptr %39, i64 %45
  %55 = load i16, ptr %54, align 1, !tbaa !29
  %56 = getelementptr inbounds nuw i8, ptr %44, i64 6
  store i16 %55, ptr %56, align 2, !tbaa !21
  %57 = getelementptr inbounds nuw i8, ptr %.05565.us, i64 %45
  %58 = load i16, ptr %57, align 1, !tbaa !29
  %59 = getelementptr inbounds nuw i8, ptr %44, i64 8
  store i16 %58, ptr %59, align 2, !tbaa !21
  %60 = getelementptr inbounds nuw i8, ptr %40, i64 %45
  %61 = load i16, ptr %60, align 1, !tbaa !29
  %62 = getelementptr inbounds nuw i8, ptr %44, i64 10
  store i16 %61, ptr %62, align 2, !tbaa !21
  %63 = getelementptr inbounds nuw i8, ptr %41, i64 %45
  %64 = load i16, ptr %63, align 1, !tbaa !29
  %65 = getelementptr inbounds nuw i8, ptr %44, i64 12
  store i16 %64, ptr %65, align 2, !tbaa !21
  %66 = getelementptr inbounds nuw i8, ptr %42, i64 %45
  %67 = load i16, ptr %66, align 1, !tbaa !29
  %68 = getelementptr inbounds nuw i8, ptr %44, i64 14
  store i16 %67, ptr %68, align 2, !tbaa !21
  %indvars.iv.next74 = add nuw nsw i64 %indvars.iv73, 1
  %exitcond77.not = icmp eq i64 %indvars.iv.next74, %wide.trip.count76
  br i1 %exitcond77.not, label %._crit_edge.us, label %43, !llvm.loop !30

._crit_edge.us:                                   ; preds = %43
  %69 = add nsw i32 %.05664.us, -8
  %70 = getelementptr inbounds nuw i8, ptr %.05565.us, i64 %29
  %71 = icmp sgt i32 %.05664.us, 15
  br i1 %71, label %.lr.ph63.us, label %._crit_edge69.loopexit, !llvm.loop !31

._crit_edge69.loopexit:                           ; preds = %._crit_edge.us
  %72 = trunc nsw i64 %indvars.iv.next79 to i32
  br label %._crit_edge69

._crit_edge69:                                    ; preds = %.lr.ph68.split.preheader, %._crit_edge69.loopexit, %.loopexit
  %.1.lcssa = phi i32 [ %.0, %.loopexit ], [ %72, %._crit_edge69.loopexit ], [ %34, %.lr.ph68.split.preheader ]
  ret i32 %.1.lcssa
}